; Function Attrs: mustprogress uwtable
define internal void @_ZN7rocksdb12_GLOBAL__N_112SimCacheImpl11SetCapacityEm(ptr noundef nonnull readonly align 8 captures(none) dereferenceable(216) %0, i64 noundef %1) unnamed_addr #4 align 2 {
  %3 = getelementptr inbounds nuw i8, ptr %0, i64 80
  %4 = load ptr, ptr %3, align 8, !tbaa !45
  %5 = load ptr, ptr %4, align 8, !tbaa !32
  %6 = getelementptr inbounds nuw i8, ptr %5, i64 216
  %7 = load ptr, ptr %6, align 8
  tail call void %7(ptr noundef nonnull align 8 dereferenceable(80) %4, i64 noundef %1)
  ret void
}